target datalayout = "e-m:e-p270:32:32-p271:32:32-p272:64:64-i64:64-i128:128-f80:128-n8:16:32:64-S128"
target triple = "x86_64-pc-linux-gnu"

; Function Attrs: nounwind uwtable
define hidden void @opj_read_bytes_BE(ptr noundef %0, ptr noundef %1, i32 noundef %2) #0 {
  %4 = alloca ptr, align 8
  %5 = alloca ptr, align 8
  %6 = alloca i32, align 4
  %7 = alloca ptr, align 8
  store ptr %0, ptr %4, align 8, !tbaa !3
  store ptr %1, ptr %5, align 8, !tbaa !13
  store i32 %2, ptr %6, align 4, !tbaa !8
  call void @llvm.lifetime.start.p0(i64 8, ptr %7) #4
  %8 = load ptr, ptr %5, align 8, !tbaa !13
  store ptr %8, ptr %7, align 8, !tbaa !3
  %9 = load ptr, ptr %5, align 8, !tbaa !13
  store i32 0, ptr %9, align 4, !tbaa !8
  %10 = load ptr, ptr %7, align 8, !tbaa !3
  %11 = getelementptr inbounds nuw i8, ptr %10, i64 4
  %12 = load i32, ptr %6, align 4, !tbaa !8
  %13 = zext i32 %12 to i64
  %14 = sub i64 0, %13
  %15 = getelementptr inbounds i8, ptr %11, i64 %14
  %16 = load ptr, ptr %4, align 8, !tbaa !3
  %17 = load i32, ptr %6, align 4, !tbaa !8
  %18 = zext i32 %17 to i64
  call void @llvm.memcpy.p0.p0.i64(ptr align 1 %15, ptr align 1 %16, i64 %18, i1 false)
  call void @llvm.lifetime.end.p0(i64 8, ptr %7) #4
  ret void
}