; Function Attrs: mustprogress nofree norecurse nosync nounwind willreturn memory(argmem: readwrite) uwtable
define hidden void @opj_read_bytes_BE(ptr noundef readonly captures(none) %0, ptr noundef writeonly captures(none) initializes((0, 4)) %1, i32 noundef %2) local_unnamed_addr #0 {
  store i32 0, ptr %1, align 4, !tbaa !3
  %4 = getelementptr inbounds nuw i8, ptr %1, i64 4
  %5 = zext i32 %2 to i64
  %6 = sub nsw i64 0, %5
  %7 = getelementptr inbounds i8, ptr %4, i64 %6
  tail call void @llvm.memcpy.p0.p0.i64(ptr nonnull align 1 %7, ptr align 1 %0, i64 %5, i1 false)
  ret void
}